target datalayout = "e-m:e-p270:32:32-p271:32:32-p272:64:64-i64:64-i128:128-f80:128-n8:16:32:64-S128"
target triple = "x86_64-pc-linux-gnu"

%struct.JoinPathExtraData = type { ptr, ptr, i8, ptr, %struct.SemiAntiJoinFactors, ptr }
%struct.SemiAntiJoinFactors = type { double, double }
%struct.SpecialJoinInfo = type { i32, ptr, ptr, ptr, ptr, i32, i32, ptr, ptr, ptr, ptr, i8, i8, i8, ptr, ptr }
%struct.Path = type { i32, i32, ptr, ptr, ptr, i8, i8, i32, double, i32, double, double, ptr }
%struct.ParamPathInfo = type { i32, ptr, double, ptr, ptr }
%struct.JoinCostWorkspace = type { i32, double, double, double, double, double, double, double, double, double, i32, i32, double }

; Function Attrs: nounwind uwtable
define internal void @try_hashjoin_path(ptr noundef %0, ptr noundef %1, ptr noundef %2, ptr noundef %3, ptr noundef %4, i32 noundef %5, ptr noundef %6) #0 {
  %8 = alloca ptr, align 8
  %9 = alloca ptr, align 8
  %10 = alloca ptr, align 8
  %11 = alloca ptr, align 8
  %12 = alloca ptr, align 8
  %13 = alloca i32, align 4
  %14 = alloca ptr, align 8
  %15 = alloca ptr, align 8
  %16 = alloca %struct.JoinCostWorkspace, align 8
  %17 = alloca i32, align 4
  store ptr %0, ptr %8, align 8
  store ptr %1, ptr %9, align 8
  store ptr %2, ptr %10, align 8
  store ptr %3, ptr %11, align 8
  store ptr %4, ptr %12, align 8
  store i32 %5, ptr %13, align 4
  store ptr %6, ptr %14, align 8
  call void @llvm.lifetime.start.p0(i64 8, ptr %15) #6
  call void @llvm.lifetime.start.p0(i64 96, ptr %16) #6
  %18 = load ptr, ptr %14, align 8
  %19 = getelementptr inbounds nuw %struct.JoinPathExtraData, ptr %18, i32 0, i32 3
  %20 = load ptr, ptr %19, align 8
  %21 = getelementptr inbounds nuw %struct.SpecialJoinInfo, ptr %20, i32 0, i32 6
  %22 = load i32, ptr %21, align 4
  %23 = icmp ne i32 %22, 0
  br i1 %23, label %24, label %65

24:                                               ; preds = %7
  %25 = load ptr, ptr %14, align 8
  %26 = getelementptr inbounds nuw %struct.JoinPathExtraData, ptr %25, i32 0, i32 3
  %27 = load ptr, ptr %26, align 8
  %28 = getelementptr inbounds nuw %struct.SpecialJoinInfo, ptr %27, i32 0, i32 6
  %29 = load i32, ptr %28, align 4
  %30 = load ptr, ptr %11, align 8
  %31 = getelementptr inbounds nuw %struct.Path, ptr %30, i32 0, i32 4
  %32 = load ptr, ptr %31, align 8
  %33 = icmp ne ptr %32, null
  br i1 %33, label %34, label %40

34:                                               ; preds = %24
  %35 = load ptr, ptr %11, align 8
  %36 = getelementptr inbounds nuw %struct.Path, ptr %35, i32 0, i32 4
  %37 = load ptr, ptr %36, align 8
  %38 = getelementptr inbounds nuw %struct.ParamPathInfo, ptr %37, i32 0, i32 1
  %39 = load ptr, ptr %38, align 8
  br label %41

40:                                               ; preds = %24
  br label %41

41:                                               ; preds = %40, %34
  %42 = phi ptr [ %39, %34 ], [ null, %40 ]
  %43 = call zeroext i1 @bms_is_member(i32 noundef %29, ptr noundef %42)
  br i1 %43, label %64, label %44

44:                                               ; preds = %41
  %45 = load ptr, ptr %14, align 8
  %46 = getelementptr inbounds nuw %struct.JoinPathExtraData, ptr %45, i32 0, i32 3
  %47 = load ptr, ptr %46, align 8
  %48 = getelementptr inbounds nuw %struct.SpecialJoinInfo, ptr %47, i32 0, i32 6
  %49 = load i32, ptr %48, align 4
  %50 = load ptr, ptr %10, align 8
  %51 = getelementptr inbounds nuw %struct.Path, ptr %50, i32 0, i32 4
  %52 = load ptr, ptr %51, align 8
  %53 = icmp ne ptr %52, null
  br i1 %53, label %54, label %60

54:                                               ; preds = %44
  %55 = load ptr, ptr %10, align 8
  %56 = getelementptr inbounds nuw %struct.Path, ptr %55, i32 0, i32 4
  %57 = load ptr, ptr %56, align 8
  %58 = getelementptr inbounds nuw %struct.ParamPathInfo, ptr %57, i32 0, i32 1
  %59 = load ptr, ptr %58, align 8
  br label %61

60:                                               ; preds = %44
  br label %61

61:                                               ; preds = %60, %54
  %62 = phi ptr [ %59, %54 ], [ null, %60 ]
  %63 = call zeroext i1 @bms_is_member(i32 noundef %49, ptr noundef %62)
  br i1 %63, label %64, label %65

64:                                               ; preds = %61, %41
  store i32 1, ptr %17, align 4
  br label %112

65:                                               ; preds = %61, %7
  %66 = load ptr, ptr %10, align 8
  %67 = load ptr, ptr %11, align 8
  %68 = call ptr @calc_non_nestloop_required_outer(ptr noundef %66, ptr noundef %67)
  store ptr %68, ptr %15, align 8
  %69 = load ptr, ptr %15, align 8
  %70 = icmp ne ptr %69, null
  br i1 %70, label %71, label %79

71:                                               ; preds = %65
  %72 = load ptr, ptr %15, align 8
  %73 = load ptr, ptr %14, align 8
  %74 = getelementptr inbounds nuw %struct.JoinPathExtraData, ptr %73, i32 0, i32 5
  %75 = load ptr, ptr %74, align 8
  %76 = call zeroext i1 @bms_overlap(ptr noundef %72, ptr noundef %75)
  br i1 %76, label %79, label %77

77:                                               ; preds = %71
  %78 = load ptr, ptr %15, align 8
  call void @bms_free(ptr noundef %78)
  store i32 1, ptr %17, align 4
  br label %112

79:                                               ; preds = %71, %65
  %80 = load ptr, ptr %8, align 8
  %81 = load i32, ptr %13, align 4
  %82 = load ptr, ptr %12, align 8
  %83 = load ptr, ptr %10, align 8
  %84 = load ptr, ptr %11, align 8
  %85 = load ptr, ptr %14, align 8
  call void @initial_cost_hashjoin(ptr noundef %80, ptr noundef %16, i32 noundef %81, ptr noundef %82, ptr noundef %83, ptr noundef %84, ptr noundef %85, i1 noundef zeroext false)
  %86 = load ptr, ptr %9, align 8
  %87 = getelementptr inbounds nuw %struct.JoinCostWorkspace, ptr %16, i32 0, i32 0
  %88 = load i32, ptr %87, align 8
  %89 = getelementptr inbounds nuw %struct.JoinCostWorkspace, ptr %16, i32 0, i32 1
  %90 = load double, ptr %89, align 8
  %91 = getelementptr inbounds nuw %struct.JoinCostWorkspace, ptr %16, i32 0, i32 2
  %92 = load double, ptr %91, align 8
  %93 = load ptr, ptr %15, align 8
  %94 = call zeroext i1 @add_path_precheck(ptr noundef %86, i32 noundef %88, double noundef %90, double noundef %92, ptr noundef null, ptr noundef %93)
  br i1 %94, label %95, label %109

95:                                               ; preds = %79
  %96 = load ptr, ptr %9, align 8
  %97 = load ptr, ptr %8, align 8
  %98 = load ptr, ptr %9, align 8
  %99 = load i32, ptr %13, align 4
  %100 = load ptr, ptr %14, align 8
  %101 = load ptr, ptr %10, align 8
  %102 = load ptr, ptr %11, align 8
  %103 = load ptr, ptr %14, align 8
  %104 = getelementptr inbounds nuw %struct.JoinPathExtraData, ptr %103, i32 0, i32 0
  %105 = load ptr, ptr %104, align 8
  %106 = load ptr, ptr %15, align 8
  %107 = load ptr, ptr %12, align 8
  %108 = call ptr @create_hashjoin_path(ptr noundef %97, ptr noundef %98, i32 noundef %99, ptr noundef %16, ptr noundef %100, ptr noundef %101, ptr noundef %102, i1 noundef zeroext false, ptr noundef %105, ptr noundef %106, ptr noundef %107)
  call void @add_path(ptr noundef %96, ptr noundef %108)
  br label %111

109:                                              ; preds = %79
  %110 = load ptr, ptr %15, align 8
  call void @bms_free(ptr noundef %110)
  br label %111

111:                                              ; preds = %109, %95
  store i32 0, ptr %17, align 4
  br label %112

112:                                              ; preds = %111, %77, %64
  call void @llvm.lifetime.end.p0(i64 96, ptr %16) #6
  call void @llvm.lifetime.end.p0(i64 8, ptr %15) #6
  %113 = load i32, ptr %17, align 4
  switch i32 %113, label %115 [
    i32 0, label %114
    i32 1, label %114
  ]

114:                                              ; preds = %112, %112
  ret void

115:                                              ; preds = %112
  unreachable
}