; Function Attrs: nounwind uwtable
define internal fastcc void @try_hashjoin_path(ptr noundef %0, ptr noundef %1, ptr noundef %2, ptr noundef %3, ptr noundef nonnull %4, i32 noundef range(i32 10, 8) %5, ptr noundef nonnull %6) unnamed_addr #0 {
  %8 = alloca %struct.JoinCostWorkspace, align 8
  call void @llvm.lifetime.start.p0(i64 96, ptr nonnull %8) #5
  %9 = getelementptr inbounds nuw i8, ptr %6, i64 24
  %10 = load ptr, ptr %9, align 8
  %11 = getelementptr inbounds nuw i8, ptr %10, i64 44
  %12 = load i32, ptr %11, align 4
  %.not = icmp eq i32 %12, 0
  br i1 %.not, label %34, label %13

13:                                               ; preds = %7
  %14 = getelementptr inbounds nuw i8, ptr %3, i64 24
  %15 = load ptr, ptr %14, align 8
  %.not34 = icmp eq ptr %15, null
  br i1 %.not34, label %19, label %16

16:                                               ; preds = %13
  %17 = getelementptr inbounds nuw i8, ptr %15, i64 8
  %18 = load ptr, ptr %17, align 8
  br label %19

19:                                               ; preds = %13, %16
  %20 = phi ptr [ %18, %16 ], [ null, %13 ]
  %21 = tail call zeroext i1 @bms_is_member(i32 noundef %12, ptr noundef %20) #5
  br i1 %21, label %52, label %22

22:                                               ; preds = %19
  %23 = load ptr, ptr %9, align 8
  %24 = getelementptr inbounds nuw i8, ptr %23, i64 44
  %25 = load i32, ptr %24, align 4
  %26 = getelementptr inbounds nuw i8, ptr %2, i64 24
  %27 = load ptr, ptr %26, align 8
  %.not35 = icmp eq ptr %27, null
  br i1 %.not35, label %31, label %28

28:                                               ; preds = %22
  %29 = getelementptr inbounds nuw i8, ptr %27, i64 8
  %30 = load ptr, ptr %29, align 8
  br label %31

31:                                               ; preds = %22, %28
  %32 = phi ptr [ %30, %28 ], [ null, %22 ]
  %33 = tail call zeroext i1 @bms_is_member(i32 noundef %25, ptr noundef %32) #5
  br i1 %33, label %52, label %34

34:                                               ; preds = %31, %7
  %35 = tail call ptr @calc_non_nestloop_required_outer(ptr noundef %2, ptr noundef %3) #5
  %.not36 = icmp eq ptr %35, null
  br i1 %.not36, label %41, label %36

36:                                               ; preds = %34
  %37 = getelementptr inbounds nuw i8, ptr %6, i64 48
  %38 = load ptr, ptr %37, align 8
  %39 = tail call zeroext i1 @bms_overlap(ptr noundef nonnull %35, ptr noundef %38) #5
  br i1 %39, label %41, label %40

40:                                               ; preds = %36
  tail call void @bms_free(ptr noundef nonnull %35) #5
  br label %52

41:                                               ; preds = %36, %34
  call void @initial_cost_hashjoin(ptr noundef %0, ptr noundef nonnull %8, i32 noundef %5, ptr noundef nonnull %4, ptr noundef %2, ptr noundef %3, ptr noundef nonnull %6, i1 noundef zeroext false) #5
  %42 = load i32, ptr %8, align 8
  %43 = getelementptr inbounds nuw i8, ptr %8, i64 8
  %44 = load double, ptr %43, align 8
  %45 = getelementptr inbounds nuw i8, ptr %8, i64 16
  %46 = load double, ptr %45, align 8
  %47 = call zeroext i1 @add_path_precheck(ptr noundef %1, i32 noundef %42, double noundef %44, double noundef %46, ptr noundef null, ptr noundef %35) #5
  br i1 %47, label %48, label %51

48:                                               ; preds = %41
  %49 = load ptr, ptr %6, align 8
  %50 = call ptr @create_hashjoin_path(ptr noundef %0, ptr noundef %1, i32 noundef %5, ptr noundef nonnull %8, ptr noundef nonnull %6, ptr noundef %2, ptr noundef %3, i1 noundef zeroext false, ptr noundef %49, ptr noundef %35, ptr noundef nonnull %4) #5
  call void @add_path(ptr noundef %1, ptr noundef %50) #5
  br label %52

51:                                               ; preds = %41
  call void @bms_free(ptr noundef %35) #5
  br label %52

52:                                               ; preds = %48, %51, %19, %31, %40
  call void @llvm.lifetime.end.p0(i64 96, ptr nonnull %8) #5
  ret void
}